target datalayout = "e-m:e-p270:32:32-p271:32:32-p272:64:64-i64:64-i128:128-f80:128-n8:16:32:64-S128"
target triple = "x86_64-pc-linux-gnu"

%"struct.std::atomic.40" = type { %"struct.std::__atomic_base.41" }
%"struct.std::__atomic_base.41" = type { ptr }
%"class.folly::Range" = type { ptr, ptr }
%"struct.std::atomic" = type { i32 }
%"struct.folly::detail::StaticSingletonManagerWithRtti::Arg" = type { %"struct.std::atomic.40", ptr, ptr, ptr }
%"class.folly::XlogFileScopeInfo" = type { %"struct.std::atomic", ptr }

; Function Attrs: noinline noreturn nounwind uwtable
define linkonce_odr hidden void @__clang_call_terminate(ptr noundef %0) #8 comdat {
  %2 = call ptr @__cxa_begin_catch(ptr %0) #11
  call void @_ZSt9terminatev() #19
  unreachable
}

; Function Attrs: mustprogress nounwind uwtable
define linkonce_odr noundef i32 @_ZStanSt12memory_orderSt23__memory_order_modifier(i32 noundef %0, i32 noundef %1) #1 comdat {
  %3 = alloca i32, align 4
  %4 = alloca i32, align 4
  store i32 %0, ptr %3, align 4, !tbaa !25
  store i32 %1, ptr %4, align 4, !tbaa !34
  %5 = load i32, ptr %3, align 4, !tbaa !25
  %6 = load i32, ptr %4, align 4, !tbaa !34
  %7 = and i32 %5, %6
  ret i32 %7
}

; Function Attrs: alwaysinline mustprogress nounwind uwtable
define linkonce_odr noundef ptr @_ZNKSt13__atomic_baseIPvE4loadESt12memory_order(ptr noundef nonnull align 8 dereferenceable(8) %0, i32 noundef %1) #7 comdat align 2 personality ptr @__gxx_personality_v0 {
  %3 = alloca ptr, align 8
  %4 = alloca i32, align 4
  %5 = alloca i32, align 4
  %6 = alloca ptr, align 8
  store ptr %0, ptr %3, align 8, !tbaa !32
  store i32 %1, ptr %4, align 4, !tbaa !25
  %7 = load ptr, ptr %3, align 8
  call void @llvm.lifetime.start.p0(i64 4, ptr %5) #11
  %8 = load i32, ptr %4, align 4, !tbaa !25
  %9 = invoke noundef i32 @_ZStanSt12memory_orderSt23__memory_order_modifier(i32 noundef %8, i32 noundef 65535)
          to label %10 unwind label %27

10:                                               ; preds = %2
  store i32 %9, ptr %5, align 4, !tbaa !25
  br label %11

11:                                               ; preds = %10
  br label %12

12:                                               ; preds = %11
  br label %13

13:                                               ; preds = %12
  br label %14

14:                                               ; preds = %13
  br label %15

15:                                               ; preds = %14
  br label %16

16:                                               ; preds = %15
  %17 = getelementptr inbounds nuw %"struct.std::__atomic_base.41", ptr %7, i32 0, i32 0
  %18 = load i32, ptr %4, align 4, !tbaa !25
  switch i32 %18, label %19 [
    i32 1, label %21
    i32 2, label %21
    i32 5, label %23
  ]

19:                                               ; preds = %16
  %20 = load atomic i64, ptr %17 monotonic, align 8
  store i64 %20, ptr %6, align 8
  br label %25

21:                                               ; preds = %16, %16
  %22 = load atomic i64, ptr %17 acquire, align 8
  store i64 %22, ptr %6, align 8
  br label %25

23:                                               ; preds = %16
  %24 = load atomic i64, ptr %17 seq_cst, align 8
  store i64 %24, ptr %6, align 8
  br label %25

25:                                               ; preds = %23, %21, %19
  %26 = load ptr, ptr %6, align 8, !tbaa !27
  call void @llvm.lifetime.end.p0(i64 4, ptr %5) #11
  ret ptr %26

27:                                               ; preds = %2
  %28 = landingpad { ptr, i32 }
          catch ptr null
  %29 = extractvalue { ptr, i32 } %28, 0
  call void @__clang_call_terminate(ptr %29) #19
  unreachable
}

; Function Attrs: mustprogress nounwind uwtable
define linkonce_odr noundef ptr @_ZNKSt6atomicIPvE4loadESt12memory_order(ptr noundef nonnull align 8 dereferenceable(8) %0, i32 noundef %1) #1 comdat align 2 {
  %3 = alloca ptr, align 8
  %4 = alloca i32, align 4
  store ptr %0, ptr %3, align 8, !tbaa !30
  store i32 %1, ptr %4, align 4, !tbaa !25
  %5 = load ptr, ptr %3, align 8
  %6 = getelementptr inbounds nuw %"struct.std::atomic.40", ptr %5, i32 0, i32 0
  %7 = load i32, ptr %4, align 4, !tbaa !25
  %8 = call noundef ptr @_ZNKSt13__atomic_baseIPvE4loadESt12memory_order(ptr noundef nonnull align 8 dereferenceable(8) %6, i32 noundef %7) #11
  ret ptr %8
}

; Function Attrs: alwaysinline mustprogress uwtable
define linkonce_odr hidden noundef nonnull align 8 dereferenceable(232) ptr @_ZN5folly6detail30StaticSingletonManagerWithRtti6createIZNS_8LoggerDB3getEvE9SingletonJELb0EEERT_RNS1_9ArgCreateIXT1_EEE(ptr noundef nonnull align 8 dereferenceable(32) %0) #5 comdat align 2 {
  %2 = alloca ptr, align 8
  %3 = alloca ptr, align 8
  %4 = alloca ptr, align 8
  store ptr %0, ptr %2, align 8, !tbaa !28
  call void @llvm.lifetime.start.p0(i64 8, ptr %3) #11
  %5 = load ptr, ptr %2, align 8, !tbaa !28
  %6 = getelementptr inbounds nuw %"struct.folly::detail::StaticSingletonManagerWithRtti::Arg", ptr %5, i32 0, i32 0
  %7 = call noundef ptr @_ZNKSt6atomicIPvE4loadESt12memory_order(ptr noundef nonnull align 8 dereferenceable(8) %6, i32 noundef 2) #11
  store ptr %7, ptr %3, align 8, !tbaa !27
  call void @llvm.lifetime.start.p0(i64 8, ptr %4) #11
  %8 = load ptr, ptr %3, align 8, !tbaa !27
  %9 = icmp ne ptr %8, null
  %10 = xor i1 %9, true
  %11 = xor i1 %10, true
  %12 = zext i1 %11 to i64
  %13 = call i64 @llvm.expect.i64(i64 %12, i64 1)
  %14 = icmp ne i64 %13, 0
  br i1 %14, label %15, label %17

15:                                               ; preds = %1
  %16 = load ptr, ptr %3, align 8, !tbaa !27
  br label %20

17:                                               ; preds = %1
  %18 = load ptr, ptr %2, align 8, !tbaa !28
  %19 = call noundef ptr @_ZN5folly6detail30StaticSingletonManagerWithRtti7create_ILb0EEEPvRNS1_3ArgE(ptr noundef nonnull align 8 dereferenceable(32) %18)
  br label %20

20:                                               ; preds = %17, %15
  %21 = phi ptr [ %16, %15 ], [ %19, %17 ]
  store ptr %21, ptr %4, align 8, !tbaa !27
  %22 = load ptr, ptr %4, align 8, !tbaa !27
  call void @llvm.lifetime.end.p0(i64 8, ptr %4) #11
  call void @llvm.lifetime.end.p0(i64 8, ptr %3) #11
  ret ptr %22
}

; Function Attrs: alwaysinline mustprogress nounwind uwtable
define linkonce_odr noundef nonnull align 8 dereferenceable(32) ptr @_ZN5folly6detail30StaticSingletonManagerWithRtti6globalIZNS_8LoggerDB3getEvE9SingletonvNS1_9ArgCreateILb0EEEEERT1_v() #7 comdat align 2 {
  ret ptr @_ZZN5folly6detail30StaticSingletonManagerWithRtti6globalIZNS_8LoggerDB3getEvE9SingletonvNS1_9ArgCreateILb0EEEEERT1_vE3arg
}

; Function Attrs: alwaysinline mustprogress uwtable
define linkonce_odr hidden noundef nonnull align 8 dereferenceable(232) ptr @_ZN5folly6detail30StaticSingletonManagerWithRtti6createIZNS_8LoggerDB3getEvE9SingletonvEERT_v() #5 comdat align 2 {
  %1 = call noundef nonnull align 8 dereferenceable(32) ptr @_ZN5folly6detail30StaticSingletonManagerWithRtti6globalIZNS_8LoggerDB3getEvE9SingletonvNS1_9ArgCreateILb0EEEEERT1_v()
  %2 = call noundef nonnull align 8 dereferenceable(232) ptr @_ZN5folly6detail30StaticSingletonManagerWithRtti6createIZNS_8LoggerDB3getEvE9SingletonJELb0EEERT_RNS1_9ArgCreateIXT1_EEE(ptr noundef nonnull align 8 dereferenceable(32) %1)
  ret ptr %2
}

; Function Attrs: alwaysinline mustprogress uwtable
define linkonce_odr hidden noundef nonnull align 8 dereferenceable(232) ptr @_ZN5folly6detail12createGlobalIZNS_8LoggerDB3getEvE9SingletonvEERT_v() #5 comdat {
  %1 = call noundef nonnull align 8 dereferenceable(232) ptr @_ZN5folly6detail30StaticSingletonManagerWithRtti6createIZNS_8LoggerDB3getEvE9SingletonvEERT_v()
  ret ptr %1
}

; Function Attrs: mustprogress nounwind uwtable
define { ptr, ptr } @_ZN5folly26getXlogCategoryNameForFileENS_5RangeIPKcEE(ptr %0, ptr %1) #1 {
  %3 = alloca %"class.folly::Range", align 8
  %4 = alloca %"class.folly::Range", align 8
  %5 = getelementptr inbounds nuw { ptr, ptr }, ptr %4, i32 0, i32 0
  store ptr %0, ptr %5, align 8
  %6 = getelementptr inbounds nuw { ptr, ptr }, ptr %4, i32 0, i32 1
  store ptr %1, ptr %6, align 8
  call void @llvm.memcpy.p0.p0.i64(ptr align 8 %3, ptr align 8 %4, i64 16, i1 false), !tbaa.struct !18
  %7 = load { ptr, ptr }, ptr %3, align 8
  ret { ptr, ptr } %7
}

; Function Attrs: alwaysinline mustprogress uwtable
define linkonce_odr noundef nonnull align 8 dereferenceable(232) ptr @_ZN5folly8LoggerDB3getEv() #5 comdat align 2 {
  %1 = call noundef nonnull align 8 dereferenceable(232) ptr @_ZN5folly6detail12createGlobalIZNS_8LoggerDB3getEvE9SingletonvEERT_v()
  ret ptr %1
}

; Function Attrs: mustprogress nounwind uwtable
define linkonce_odr noundef i32 @_ZNKSt6atomicIN5folly8LogLevelEE4loadESt12memory_order(ptr noundef nonnull align 4 dereferenceable(4) %0, i32 noundef %1) #1 comdat align 2 {
  %3 = alloca ptr, align 8
  %4 = alloca i32, align 4
  %5 = alloca [4 x i8], align 4
  %6 = alloca ptr, align 8
  store ptr %0, ptr %3, align 8, !tbaa !23
  store i32 %1, ptr %4, align 4, !tbaa !25
  %7 = load ptr, ptr %3, align 8
  call void @llvm.lifetime.start.p0(i64 4, ptr %5) #11
  call void @llvm.lifetime.start.p0(i64 8, ptr %6) #11
  %8 = getelementptr inbounds [4 x i8], ptr %5, i64 0, i64 0
  store ptr %8, ptr %6, align 8, !tbaa !27
  %9 = getelementptr inbounds nuw %"struct.std::atomic", ptr %7, i32 0, i32 0
  %10 = load i32, ptr %4, align 4, !tbaa !25
  %11 = load ptr, ptr %6, align 8, !tbaa !27
  switch i32 %10, label %12 [
    i32 1, label %14
    i32 2, label %14
    i32 5, label %16
  ]

12:                                               ; preds = %2
  %13 = load atomic i32, ptr %9 monotonic, align 4
  store i32 %13, ptr %11, align 4
  br label %18

14:                                               ; preds = %2, %2
  %15 = load atomic i32, ptr %9 acquire, align 4
  store i32 %15, ptr %11, align 4
  br label %18

16:                                               ; preds = %2
  %17 = load atomic i32, ptr %9 seq_cst, align 4
  store i32 %17, ptr %11, align 4
  br label %18

18:                                               ; preds = %16, %14, %12
  %19 = load ptr, ptr %6, align 8, !tbaa !27
  %20 = load i32, ptr %19, align 4, !tbaa !12
  call void @llvm.lifetime.end.p0(i64 8, ptr %6) #11
  call void @llvm.lifetime.end.p0(i64 4, ptr %5) #11
  ret i32 %20
}

; Function Attrs: mustprogress uwtable
define noundef i32 @_ZN5folly13XlogLevelInfoILb0EE13loadLevelFullENS_5RangeIPKcEEbPNS_17XlogFileScopeInfoE(ptr %0, ptr %1, i1 noundef zeroext %2, ptr noundef %3) #0 align 2 {
  %5 = alloca i32, align 4
  %6 = alloca %"class.folly::Range", align 8
  %7 = alloca i8, align 1
  %8 = alloca ptr, align 8
  %9 = alloca i32, align 4
  %10 = alloca %"class.folly::Range", align 8
  %11 = alloca %"class.folly::Range", align 8
  %12 = alloca i32, align 4
  %13 = getelementptr inbounds nuw { ptr, ptr }, ptr %6, i32 0, i32 0
  store ptr %0, ptr %13, align 8
  %14 = getelementptr inbounds nuw { ptr, ptr }, ptr %6, i32 0, i32 1
  store ptr %1, ptr %14, align 8
  %15 = zext i1 %2 to i8
  store i8 %15, ptr %7, align 1, !tbaa !14
  store ptr %3, ptr %8, align 8, !tbaa !16
  call void @llvm.lifetime.start.p0(i64 4, ptr %9) #11
  %16 = load ptr, ptr %8, align 8, !tbaa !16
  %17 = getelementptr inbounds nuw %"class.folly::XlogFileScopeInfo", ptr %16, i32 0, i32 0
  %18 = call noundef i32 @_ZNKSt6atomicIN5folly8LogLevelEE4loadESt12memory_order(ptr noundef nonnull align 4 dereferenceable(4) %17, i32 noundef 2) #11
  store i32 %18, ptr %9, align 4, !tbaa !12
  %19 = load i32, ptr %9, align 4, !tbaa !12
  %20 = icmp eq i32 %19, 0
  %21 = zext i1 %20 to i64
  %22 = call i64 @llvm.expect.i64(i64 %21, i64 0)
  %23 = icmp ne i64 %22, 0
  br i1 %23, label %24, label %49

24:                                               ; preds = %4
  %25 = call noundef nonnull align 8 dereferenceable(232) ptr @_ZN5folly8LoggerDB3getEv()
  %26 = load i8, ptr %7, align 1, !tbaa !14, !range !21, !noundef !22
  %27 = trunc i8 %26 to i1
  br i1 %27, label %28, label %29

28:                                               ; preds = %24
  call void @llvm.memcpy.p0.p0.i64(ptr align 8 %10, ptr align 8 %6, i64 16, i1 false), !tbaa.struct !18
  br label %39

29:                                               ; preds = %24
  call void @llvm.memcpy.p0.p0.i64(ptr align 8 %11, ptr align 8 %6, i64 16, i1 false), !tbaa.struct !18
  %30 = getelementptr inbounds nuw { ptr, ptr }, ptr %11, i32 0, i32 0
  %31 = load ptr, ptr %30, align 8
  %32 = getelementptr inbounds nuw { ptr, ptr }, ptr %11, i32 0, i32 1
  %33 = load ptr, ptr %32, align 8
  %34 = call { ptr, ptr } @_ZN5folly26getXlogCategoryNameForFileENS_5RangeIPKcEE(ptr %31, ptr %33)
  %35 = getelementptr inbounds nuw { ptr, ptr }, ptr %10, i32 0, i32 0
  %36 = extractvalue { ptr, ptr } %34, 0
  store ptr %36, ptr %35, align 8
  %37 = getelementptr inbounds nuw { ptr, ptr }, ptr %10, i32 0, i32 1
  %38 = extractvalue { ptr, ptr } %34, 1
  store ptr %38, ptr %37, align 8
  br label %39

39:                                               ; preds = %29, %28
  %40 = load ptr, ptr %8, align 8, !tbaa !16
  %41 = getelementptr inbounds nuw %"class.folly::XlogFileScopeInfo", ptr %40, i32 0, i32 0
  %42 = load ptr, ptr %8, align 8, !tbaa !16
  %43 = getelementptr inbounds nuw %"class.folly::XlogFileScopeInfo", ptr %42, i32 0, i32 1
  %44 = getelementptr inbounds nuw { ptr, ptr }, ptr %10, i32 0, i32 0
  %45 = load ptr, ptr %44, align 8
  %46 = getelementptr inbounds nuw { ptr, ptr }, ptr %10, i32 0, i32 1
  %47 = load ptr, ptr %46, align 8
  %48 = call noundef i32 @_ZN5folly8LoggerDB8xlogInitENS_5RangeIPKcEEPSt6atomicINS_8LogLevelEEPPNS_11LogCategoryE(ptr noundef nonnull align 8 dereferenceable(232) %25, ptr %45, ptr %47, ptr noundef %41, ptr noundef %43)
  store i32 %48, ptr %5, align 4
  store i32 1, ptr %12, align 4
  br label %51

49:                                               ; preds = %4
  %50 = load i32, ptr %9, align 4, !tbaa !12
  store i32 %50, ptr %5, align 4
  store i32 1, ptr %12, align 4
  br label %51

51:                                               ; preds = %49, %39
  call void @llvm.lifetime.end.p0(i64 4, ptr %9) #11
  %52 = load i32, ptr %5, align 4
  ret i32 %52
}