; Function Attrs: mustprogress uwtable
define noundef i32 @_ZN5folly13XlogLevelInfoILb0EE13loadLevelFullENS_5RangeIPKcEEbPNS_17XlogFileScopeInfoE(ptr %0, ptr %1, i1 noundef zeroext %2, ptr noundef %3) local_unnamed_addr #0 align 2 personality ptr @__gxx_personality_v0 {
  %5 = load atomic i32, ptr %3 acquire, align 4
  %6 = icmp eq i32 %5, 0
  br i1 %6, label %7, label %14, !prof !8

7:                                                ; preds = %4
  %8 = load atomic i64, ptr @_ZZN5folly6detail30StaticSingletonManagerWithRtti6globalIZNS_8LoggerDB3getEvE9SingletonvNS1_9ArgCreateILb0EEEEERT1_vE3arg acquire, align 8
  %.0.i.i = inttoptr i64 %8 to ptr
  %.not.i = icmp eq i64 %8, 0
  br i1 %.not.i, label %9, label %_ZN5folly6detail30StaticSingletonManagerWithRtti6createIZNS_8LoggerDB3getEvE9SingletonJELb0EEERT_RNS1_9ArgCreateIXT1_EEE.exit, !prof !8

9:                                                ; preds = %7
  %10 = tail call noundef ptr @_ZN5folly6detail30StaticSingletonManagerWithRtti7create_ILb0EEEPvRNS1_3ArgE(ptr noundef nonnull align 8 dereferenceable(32) @_ZZN5folly6detail30StaticSingletonManagerWithRtti6globalIZNS_8LoggerDB3getEvE9SingletonvNS1_9ArgCreateILb0EEEEERT1_vE3arg)
  br label %_ZN5folly6detail30StaticSingletonManagerWithRtti6createIZNS_8LoggerDB3getEvE9SingletonJELb0EEERT_RNS1_9ArgCreateIXT1_EEE.exit

_ZN5folly6detail30StaticSingletonManagerWithRtti6createIZNS_8LoggerDB3getEvE9SingletonJELb0EEERT_RNS1_9ArgCreateIXT1_EEE.exit: ; preds = %7, %9
  %11 = phi ptr [ %10, %9 ], [ %.0.i.i, %7 ]
  %12 = getelementptr inbounds nuw i8, ptr %3, i64 8
  %13 = tail call noundef i32 @_ZN5folly8LoggerDB8xlogInitENS_5RangeIPKcEEPSt6atomicINS_8LogLevelEEPPNS_11LogCategoryE(ptr noundef nonnull align 8 dereferenceable(232) %11, ptr %0, ptr %1, ptr noundef nonnull %3, ptr noundef nonnull %12)
  br label %14

14:                                               ; preds = %4, %_ZN5folly6detail30StaticSingletonManagerWithRtti6createIZNS_8LoggerDB3getEvE9SingletonJELb0EEERT_RNS1_9ArgCreateIXT1_EEE.exit
  %.0 = phi i32 [ %13, %_ZN5folly6detail30StaticSingletonManagerWithRtti6createIZNS_8LoggerDB3getEvE9SingletonJELb0EEERT_RNS1_9ArgCreateIXT1_EEE.exit ], [ %5, %4 ]
  ret i32 %.0
}